target datalayout = "e-m:e-p270:32:32-p271:32:32-p272:64:64-i64:64-i128:128-f80:128-n8:16:32:64-S128"
target triple = "x86_64-pc-linux-gnu"

%class.anon = type { ptr, ptr, i64, ptr, ptr, ptr }

; Function Attrs: inlinehint mustprogress uwtable
define internal void @"_ZZN7rocksdb12MemTableList30TryInstallMemtableFlushResultsEPNS_16ColumnFamilyDataERKNS_10autovectorIPNS_16ReadOnlyMemTableELm8EEEPNS_19LogsWithPrepTrackerEPNS_10VersionSetEPNS_17InstrumentedMutexEmPS6_PNS_11FSDirectoryEPNS_9LogBufferEPNSt7__cxx114listISt10unique_ptrINS_12FlushJobInfoESt14default_deleteISN_EESaISQ_EEEbENK3$_0clERKNS_6StatusE"(ptr noundef nonnull align 8 dereferenceable(48) %0, ptr noundef nonnull align 8 dereferenceable(16) %1) #9 align 2 {
  %3 = alloca ptr, align 8
  %4 = alloca ptr, align 8
  store ptr %0, ptr %3, align 8, !tbaa !32
  store ptr %1, ptr %4, align 8, !tbaa !153
  %5 = load ptr, ptr %3, align 8
  %6 = getelementptr inbounds nuw %class.anon, ptr %5, i32 0, i32 0
  %7 = load ptr, ptr %6, align 8, !tbaa !306
  %8 = load ptr, ptr %4, align 8, !tbaa !153
  %9 = getelementptr inbounds nuw %class.anon, ptr %5, i32 0, i32 1
  %10 = load ptr, ptr %9, align 8, !tbaa !308
  %11 = getelementptr inbounds nuw %class.anon, ptr %5, i32 0, i32 2
  %12 = load i64, ptr %11, align 8, !tbaa !309
  %13 = getelementptr inbounds nuw %class.anon, ptr %5, i32 0, i32 3
  %14 = load ptr, ptr %13, align 8, !tbaa !310
  %15 = getelementptr inbounds nuw %class.anon, ptr %5, i32 0, i32 4
  %16 = load ptr, ptr %15, align 8, !tbaa !311
  %17 = getelementptr inbounds nuw %class.anon, ptr %5, i32 0, i32 5
  %18 = load ptr, ptr %17, align 8, !tbaa !312
  call void @_ZN7rocksdb12MemTableList29RemoveMemTablesOrRestoreFlagsERKNS_6StatusEPNS_16ColumnFamilyDataEmPNS_9LogBufferEPNS_10autovectorIPNS_16ReadOnlyMemTableELm8EEEPNS_17InstrumentedMutexE(ptr noundef nonnull align 8 dereferenceable(56) %7, ptr noundef nonnull align 8 dereferenceable(16) %8, ptr noundef %10, i64 noundef %12, ptr noundef %14, ptr noundef %16, ptr noundef %18)
  ret void
}

; Function Attrs: mustprogress nounwind uwtable
define linkonce_odr noundef ptr @_ZNKSt9_Any_data9_M_accessEv(ptr noundef nonnull align 8 dereferenceable(16) %0) #3 comdat align 2 {
  %2 = alloca ptr, align 8
  store ptr %0, ptr %2, align 8, !tbaa !1222
  %3 = load ptr, ptr %2, align 8
  %4 = getelementptr inbounds [16 x i8], ptr %3, i64 0, i64 0
  ret ptr %4
}

; Function Attrs: mustprogress uwtable
define internal void @"_ZSt13__invoke_implIvRZN7rocksdb12MemTableList30TryInstallMemtableFlushResultsEPNS0_16ColumnFamilyDataERKNS0_10autovectorIPNS0_16ReadOnlyMemTableELm8EEEPNS0_19LogsWithPrepTrackerEPNS0_10VersionSetEPNS0_17InstrumentedMutexEmPS7_PNS0_11FSDirectoryEPNS0_9LogBufferEPNSt7__cxx114listISt10unique_ptrINS0_12FlushJobInfoESt14default_deleteISO_EESaISR_EEEbE3$_0JRKNS0_6StatusEEET_St14__invoke_otherOT0_DpOT1_"(ptr noundef nonnull align 8 dereferenceable(48) %0, ptr noundef nonnull align 8 dereferenceable(16) %1) #5 {
  %3 = alloca ptr, align 8
  %4 = alloca ptr, align 8
  store ptr %0, ptr %3, align 8, !tbaa !32
  store ptr %1, ptr %4, align 8, !tbaa !153
  %5 = load ptr, ptr %3, align 8, !tbaa !32
  %6 = load ptr, ptr %4, align 8, !tbaa !153
  call void @"_ZZN7rocksdb12MemTableList30TryInstallMemtableFlushResultsEPNS_16ColumnFamilyDataERKNS_10autovectorIPNS_16ReadOnlyMemTableELm8EEEPNS_19LogsWithPrepTrackerEPNS_10VersionSetEPNS_17InstrumentedMutexEmPS6_PNS_11FSDirectoryEPNS_9LogBufferEPNSt7__cxx114listISt10unique_ptrINS_12FlushJobInfoESt14default_deleteISN_EESaISQ_EEEbENK3$_0clERKNS_6StatusE"(ptr noundef nonnull align 8 dereferenceable(48) %5, ptr noundef nonnull align 8 dereferenceable(16) %6)
  ret void
}

; Function Attrs: mustprogress nounwind uwtable
define internal noundef nonnull align 8 dereferenceable(8) ptr @"_ZNKSt9_Any_data9_M_accessIPZN7rocksdb12MemTableList30TryInstallMemtableFlushResultsEPNS1_16ColumnFamilyDataERKNS1_10autovectorIPNS1_16ReadOnlyMemTableELm8EEEPNS1_19LogsWithPrepTrackerEPNS1_10VersionSetEPNS1_17InstrumentedMutexEmPS8_PNS1_11FSDirectoryEPNS1_9LogBufferEPNSt7__cxx114listISt10unique_ptrINS1_12FlushJobInfoESt14default_deleteISP_EESaISS_EEEbE3$_0EERKT_v"(ptr noundef nonnull align 8 dereferenceable(16) %0) #3 align 2 {
  %2 = alloca ptr, align 8
  store ptr %0, ptr %2, align 8, !tbaa !1222
  %3 = load ptr, ptr %2, align 8
  %4 = call noundef ptr @_ZNKSt9_Any_data9_M_accessEv(ptr noundef nonnull align 8 dereferenceable(16) %3) #4
  ret ptr %4
}

; Function Attrs: mustprogress uwtable
define internal void @"_ZSt10__invoke_rIvRZN7rocksdb12MemTableList30TryInstallMemtableFlushResultsEPNS0_16ColumnFamilyDataERKNS0_10autovectorIPNS0_16ReadOnlyMemTableELm8EEEPNS0_19LogsWithPrepTrackerEPNS0_10VersionSetEPNS0_17InstrumentedMutexEmPS7_PNS0_11FSDirectoryEPNS0_9LogBufferEPNSt7__cxx114listISt10unique_ptrINS0_12FlushJobInfoESt14default_deleteISO_EESaISR_EEEbE3$_0JRKNS0_6StatusEEENSt9enable_ifIX16is_invocable_r_vIT_T0_DpT1_EES11_E4typeEOS12_DpOS13_"(ptr noundef nonnull align 8 dereferenceable(48) %0, ptr noundef nonnull align 8 dereferenceable(16) %1) #5 {
  %3 = alloca ptr, align 8
  %4 = alloca ptr, align 8
  store ptr %0, ptr %3, align 8, !tbaa !32
  store ptr %1, ptr %4, align 8, !tbaa !153
  %5 = load ptr, ptr %3, align 8, !tbaa !32
  %6 = load ptr, ptr %4, align 8, !tbaa !153
  call void @"_ZSt13__invoke_implIvRZN7rocksdb12MemTableList30TryInstallMemtableFlushResultsEPNS0_16ColumnFamilyDataERKNS0_10autovectorIPNS0_16ReadOnlyMemTableELm8EEEPNS0_19LogsWithPrepTrackerEPNS0_10VersionSetEPNS0_17InstrumentedMutexEmPS7_PNS0_11FSDirectoryEPNS0_9LogBufferEPNSt7__cxx114listISt10unique_ptrINS0_12FlushJobInfoESt14default_deleteISO_EESaISR_EEEbE3$_0JRKNS0_6StatusEEET_St14__invoke_otherOT0_DpOT1_"(ptr noundef nonnull align 8 dereferenceable(48) %5, ptr noundef nonnull align 8 dereferenceable(16) %6)
  ret void
}

; Function Attrs: mustprogress nounwind uwtable
define internal noundef ptr @"_ZNSt14_Function_base13_Base_managerIZN7rocksdb12MemTableList30TryInstallMemtableFlushResultsEPNS1_16ColumnFamilyDataERKNS1_10autovectorIPNS1_16ReadOnlyMemTableELm8EEEPNS1_19LogsWithPrepTrackerEPNS1_10VersionSetEPNS1_17InstrumentedMutexEmPS8_PNS1_11FSDirectoryEPNS1_9LogBufferEPNSt7__cxx114listISt10unique_ptrINS1_12FlushJobInfoESt14default_deleteISP_EESaISS_EEEbE3$_0E14_M_get_pointerERKSt9_Any_data"(ptr noundef nonnull align 8 dereferenceable(16) %0) #3 align 2 {
  %2 = alloca ptr, align 8
  store ptr %0, ptr %2, align 8, !tbaa !1222
  %3 = load ptr, ptr %2, align 8, !tbaa !1222
  %4 = call noundef nonnull align 8 dereferenceable(8) ptr @"_ZNKSt9_Any_data9_M_accessIPZN7rocksdb12MemTableList30TryInstallMemtableFlushResultsEPNS1_16ColumnFamilyDataERKNS1_10autovectorIPNS1_16ReadOnlyMemTableELm8EEEPNS1_19LogsWithPrepTrackerEPNS1_10VersionSetEPNS1_17InstrumentedMutexEmPS8_PNS1_11FSDirectoryEPNS1_9LogBufferEPNSt7__cxx114listISt10unique_ptrINS1_12FlushJobInfoESt14default_deleteISP_EESaISS_EEEbE3$_0EERKT_v"(ptr noundef nonnull align 8 dereferenceable(16) %3) #4
  %5 = load ptr, ptr %4, align 8, !tbaa !32
  ret ptr %5
}

; Function Attrs: mustprogress uwtable
define internal void @"_ZNSt17_Function_handlerIFvRKN7rocksdb6StatusEEZNS0_12MemTableList30TryInstallMemtableFlushResultsEPNS0_16ColumnFamilyDataERKNS0_10autovectorIPNS0_16ReadOnlyMemTableELm8EEEPNS0_19LogsWithPrepTrackerEPNS0_10VersionSetEPNS0_17InstrumentedMutexEmPSB_PNS0_11FSDirectoryEPNS0_9LogBufferEPNSt7__cxx114listISt10unique_ptrINS0_12FlushJobInfoESt14default_deleteISS_EESaISV_EEEbE3$_0E9_M_invokeERKSt9_Any_dataS3_"(ptr noundef nonnull align 8 dereferenceable(16) %0, ptr noundef nonnull align 8 dereferenceable(16) %1) #5 align 2 {
  %3 = alloca ptr, align 8
  %4 = alloca ptr, align 8
  store ptr %0, ptr %3, align 8, !tbaa !1222
  store ptr %1, ptr %4, align 8, !tbaa !153
  %5 = load ptr, ptr %3, align 8, !tbaa !1222
  %6 = call noundef ptr @"_ZNSt14_Function_base13_Base_managerIZN7rocksdb12MemTableList30TryInstallMemtableFlushResultsEPNS1_16ColumnFamilyDataERKNS1_10autovectorIPNS1_16ReadOnlyMemTableELm8EEEPNS1_19LogsWithPrepTrackerEPNS1_10VersionSetEPNS1_17InstrumentedMutexEmPS8_PNS1_11FSDirectoryEPNS1_9LogBufferEPNSt7__cxx114listISt10unique_ptrINS1_12FlushJobInfoESt14default_deleteISP_EESaISS_EEEbE3$_0E14_M_get_pointerERKSt9_Any_data"(ptr noundef nonnull align 8 dereferenceable(16) %5) #4
  %7 = load ptr, ptr %4, align 8, !tbaa !153
  call void @"_ZSt10__invoke_rIvRZN7rocksdb12MemTableList30TryInstallMemtableFlushResultsEPNS0_16ColumnFamilyDataERKNS0_10autovectorIPNS0_16ReadOnlyMemTableELm8EEEPNS0_19LogsWithPrepTrackerEPNS0_10VersionSetEPNS0_17InstrumentedMutexEmPS7_PNS0_11FSDirectoryEPNS0_9LogBufferEPNSt7__cxx114listISt10unique_ptrINS0_12FlushJobInfoESt14default_deleteISO_EESaISR_EEEbE3$_0JRKNS0_6StatusEEENSt9enable_ifIX16is_invocable_r_vIT_T0_DpT1_EES11_E4typeEOS12_DpOS13_"(ptr noundef nonnull align 8 dereferenceable(48) %6, ptr noundef nonnull align 8 dereferenceable(16) %7)
  ret void
}