; Function Attrs: mustprogress uwtable
define internal void @"_ZNSt17_Function_handlerIFvRKN7rocksdb6StatusEEZNS0_12MemTableList30TryInstallMemtableFlushResultsEPNS0_16ColumnFamilyDataERKNS0_10autovectorIPNS0_16ReadOnlyMemTableELm8EEEPNS0_19LogsWithPrepTrackerEPNS0_10VersionSetEPNS0_17InstrumentedMutexEmPSB_PNS0_11FSDirectoryEPNS0_9LogBufferEPNSt7__cxx114listISt10unique_ptrINS0_12FlushJobInfoESt14default_deleteISS_EESaISV_EEEbE3$_0E9_M_invokeERKSt9_Any_dataS3_"(ptr noundef nonnull readonly align 8 captures(none) dereferenceable(16) %0, ptr noundef nonnull readonly align 8 captures(none) dereferenceable(16) %1) #4 align 2 {
  %.val = load ptr, ptr %0, align 8, !tbaa !282
  %3 = load ptr, ptr %.val, align 8, !tbaa !707
  %4 = getelementptr inbounds nuw i8, ptr %.val, i64 8
  %5 = load ptr, ptr %4, align 8, !tbaa !709
  %6 = getelementptr inbounds nuw i8, ptr %.val, i64 16
  %7 = load i64, ptr %6, align 8, !tbaa !710
  %8 = getelementptr inbounds nuw i8, ptr %.val, i64 24
  %9 = load ptr, ptr %8, align 8, !tbaa !711
  %10 = getelementptr inbounds nuw i8, ptr %.val, i64 32
  %11 = load ptr, ptr %10, align 8, !tbaa !712
  %12 = getelementptr inbounds nuw i8, ptr %.val, i64 40
  %13 = load ptr, ptr %12, align 8, !tbaa !713
  tail call void @_ZN7rocksdb12MemTableList29RemoveMemTablesOrRestoreFlagsERKNS_6StatusEPNS_16ColumnFamilyDataEmPNS_9LogBufferEPNS_10autovectorIPNS_16ReadOnlyMemTableELm8EEEPNS_17InstrumentedMutexE(ptr noundef nonnull align 8 dereferenceable(56) %3, ptr noundef nonnull readonly align 8 dereferenceable(16) %1, ptr noundef %5, i64 noundef %7, ptr noundef %9, ptr noundef %11, ptr noundef %13)
  ret void
}